Certificate:
    Data:
        Version: 3 (0x2)
        Serial Number: 0 (0x0)
        Signature Algorithm: md5WithRSAEncryption
        Issuer: C=RO, ST=Bucharest, L=Bucharest, O=N E T O P I A System, OU=N E T O P I A System Development Team, CN=mobilpay.ro/emailAddress=support@mobilpay.ro
        Validity
            Not Before: Oct 28 06:50:48 2011 GMT
            Not After : Oct 27 06:50:48 2012 GMT
        Subject: C=RO, ST=Bucharest, L=Bucharest, O=N E T O P I A System, OU=N E T O P I A System Development Team, CN=mobilpay.ro/emailAddress=support@mobilpay.ro
        Subject Public Key Info:
            Public Key Algorithm: rsaEncryption
            RSA Public Key: (1024 bit)
                Modulus (1024 bit):
                    00:bc:21:d3:f3:61:12:96:45:b8:ab:e0:85:9f:4d:
                    ef:90:97:6d:ad:39:31:63:42:87:8d:b6:91:c7:c5:
                    29:ba:8f:e5:85:62:09:40:60:dc:c7:39:65:87:75:
                    7b:45:e2:f5:48:b5:40:8d:99:fe:3b:ef:72:1a:c3:
                    64:64:30:8d:aa:c0:a6:bd:d2:f5:ba:30:1c:49:19:
                    1f:cd:59:a2:53:a8:3c:70:59:6d:8a:40:db:c0:48:
                    c8:76:11:71:a4:d7:8c:bb:62:04:6b:e3:a7:0b:b3:
                    96:39:97:78:1a:15:2e:29:c8:68:4d:08:52:93:1e:
                    9f:d3:0b:58:6d:9f:18:c7:5d
                Exponent: 65537 (0x10001)
        X509v3 extensions:
            X509v3 Subject Key Identifier: 
                3D:C9:70:A1:30:6C:73:53:34:1F:96:69:17:4F:5A:32:20:1A:1E:B5
            X509v3 Authority Key Identifier: 
                keyid:3D:C9:70:A1:30:6C:73:53:34:1F:96:69:17:4F:5A:32:20:1A:1E:B5
                DirName:/C=RO/ST=Bucharest/L=Bucharest/O=N E T O P I A System/OU=N E T O P I A System Development Team/CN=mobilpay.ro/emailAddress=support@mobilpay.ro
                serial:00

            X509v3 Basic Constraints: 
                CA:TRUE
    Signature Algorithm: md5WithRSAEncryption
        04:b7:d2:5a:8a:38:d9:0b:0c:14:c0:0d:7f:94:12:13:40:7a:
        af:a9:76:19:11:1a:35:06:fe:e5:ac:73:b4:a1:f6:28:73:90:
        4f:e3:34:52:b5:f9:de:5a:67:46:97:57:85:59:2d:4f:e1:61:
        9e:18:0c:b8:db:73:4c:c3:11:10:db:cf:0b:4f:ae:46:19:11:
        23:b3:aa:a9:b6:23:2f:74:73:eb:af:11:8c:c4:60:02:c3:43:
        8d:59:3e:b5:ab:0c:d2:ab:08:04:99:c4:a1:bd:50:8b:ba:d2:
        4f:1d:f2:37:6c:d9:49:05:e8:9f:68:7d:25:a3:10:d7:11:c3:
        e2:3d
-----BEGIN CERTIFICATE-----
MIIEFTCCA36gAwIBAgIBADANBgkqhkiG9w0BAQQFADCBvjELMAkGA1UEBhMCUk8x
EjAQBgNVBAgTCUJ1Y2hhcmVzdDESMBAGA1UEBxMJQnVjaGFyZXN0MR0wGwYDVQQK
ExROIEUgVCBPIFAgSSBBIFN5c3RlbTEuMCwGA1UECxMlTiBFIFQgTyBQIEkgQSBT
eXN0ZW0gRGV2ZWxvcG1lbnQgVGVhbTEUMBIGA1UEAxMLbW9iaWxwYXkucm8xIjAg
BgkqhkiG9w0BCQEWE3N1cHBvcnRAbW9iaWxwYXkucm8wHhcNMTExMDI4MDY1MDQ4
WhcNMTIxMDI3MDY1MDQ4WjCBvjELMAkGA1UEBhMCUk8xEjAQBgNVBAgTCUJ1Y2hh
cmVzdDESMBAGA1UEBxMJQnVjaGFyZXN0MR0wGwYDVQQKExROIEUgVCBPIFAgSSBB
IFN5c3RlbTEuMCwGA1UECxMlTiBFIFQgTyBQIEkgQSBTeXN0ZW0gRGV2ZWxvcG1l
bnQgVGVhbTEUMBIGA1UEAxMLbW9iaWxwYXkucm8xIjAgBgkqhkiG9w0BCQEWE3N1
cHBvcnRAbW9iaWxwYXkucm8wgZ8wDQYJKoZIhvcNAQEBBQADgY0AMIGJAoGBALwh
0/NhEpZFuKvghZ9N75CXba05MWNCh422kcfFKbqP5YViCUBg3Mc5ZYd1e0Xi9Ui1
QI2Z/jvvchrDZGQwjarApr3S9bowHEkZH81ZolOoPHBZbYpA28BIyHYRcaTXjLti
BGvjpwuzljmXeBoVLinIaE0IUpMen9MLWG2fGMddAgMBAAGjggEfMIIBGzAdBgNV
HQ4EFgQUPclwoTBsc1M0H5ZpF09aMiAaHrUwgesGA1UdIwSB4zCB4IAUPclwoTBs
c1M0H5ZpF09aMiAaHrWhgcSkgcEwgb4xCzAJBgNVBAYTAlJPMRIwEAYDVQQIEwlC
dWNoYXJlc3QxEjAQBgNVBAcTCUJ1Y2hhcmVzdDEdMBsGA1UEChMUTiBFIFQgTyBQ
IEkgQSBTeXN0ZW0xLjAsBgNVBAsTJU4gRSBUIE8gUCBJIEEgU3lzdGVtIERldmVs
b3BtZW50IFRlYW0xFDASBgNVBAMTC21vYmlscGF5LnJvMSIwIAYJKoZIhvcNAQkB
FhNzdXBwb3J0QG1vYmlscGF5LnJvggEAMAwGA1UdEwQFMAMBAf8wDQYJKoZIhvcN
AQEEBQADgYEABLfSWoo42QsMFMANf5QSE0B6r6l2GREaNQb+5axztKH2KHOQT+M0
UrX53lpnRpdXhVktT+FhnhgMuNtzTMMRENvPC0+uRhkRI7OqqbYjL3Rz668RjMRg
AsNDjVk+tasM0qsIBJnEob1Qi7rSTx3yN2zZSQXon2h9JaMQ1xHD4j0=
-----END CERTIFICATE-----
